target datalayout = "e-m:e-p270:32:32-p271:32:32-p272:64:64-i64:64-i128:128-f80:128-n8:16:32:64-S128"
target triple = "x86_64-pc-linux-gnu"

%"class.casadi::SharedObject" = type { ptr }
%"class.casadi::MX" = type { %"class.casadi::SharedObject" }

@_ZTVN6casadi7NormInfE = external unnamed_addr constant { [108 x ptr] }, align 8

; Function Attrs: mustprogress uwtable
define linkonce_odr hidden void @_ZN6casadi7NormInfC2ERKNS_2MXE(ptr noundef nonnull align 8 dereferenceable(64) %0, ptr noundef nonnull align 8 dereferenceable(8) %1) unnamed_addr #4 comdat align 2 {
  %3 = alloca ptr, align 8
  %4 = alloca ptr, align 8
  store ptr %0, ptr %3, align 8
  store ptr %1, ptr %4, align 8
  %5 = load ptr, ptr %3, align 8
  %6 = load ptr, ptr %4, align 8
  call void @_ZN6casadi4NormC2ERKNS_2MXE(ptr noundef nonnull align 8 dereferenceable(64) %5, ptr noundef nonnull align 8 dereferenceable(8) %6)
  store ptr getelementptr inbounds ({ [108 x ptr] }, ptr @_ZTVN6casadi7NormInfE, i32 0, i32 0, i32 2), ptr %5, align 8
  ret void
}

; Function Attrs: mustprogress uwtable
define void @_ZNK6casadi6MXNode12get_norm_infEv(ptr dead_on_unwind noalias writable sret(%"class.casadi::MX") align 8 %0, ptr noundef nonnull align 8 dereferenceable(64) %1) unnamed_addr #4 align 2 personality ptr @__gxx_personality_v0 {
  %3 = alloca ptr, align 8
  %4 = alloca ptr, align 8
  %5 = alloca %"class.casadi::MX", align 8
  %6 = alloca ptr, align 8
  %7 = alloca i32, align 4
  %8 = alloca i1, align 1
  store ptr %0, ptr %3, align 8
  store ptr %1, ptr %4, align 8
  %9 = load ptr, ptr %4, align 8
  %10 = call noalias noundef nonnull ptr @_Znwm(i64 noundef 64) #19
  store i1 true, ptr %8, align 1
  invoke void @_ZNK6casadi20SharedObjectInternal16shared_from_thisINS_2MXEEEKT_v(ptr dead_on_unwind writable sret(%"class.casadi::MX") align 8 %5, ptr noundef nonnull align 8 dereferenceable(24) %9)
          to label %11 unwind label %14

11:                                               ; preds = %2
  invoke void @_ZN6casadi7NormInfC2ERKNS_2MXE(ptr noundef nonnull align 8 dereferenceable(64) %10, ptr noundef nonnull align 8 dereferenceable(8) %5)
          to label %12 unwind label %18

12:                                               ; preds = %11
  store i1 false, ptr %8, align 1
  invoke void @_ZN6casadi2MX6createEPNS_6MXNodeE(ptr dead_on_unwind writable sret(%"class.casadi::MX") align 8 %0, ptr noundef %10)
          to label %13 unwind label %18

13:                                               ; preds = %12
  call void @_ZN6casadi2MXD1Ev(ptr noundef nonnull align 8 dereferenceable(8) %5) #3
  ret void

14:                                               ; preds = %2
  %15 = landingpad { ptr, i32 }
          cleanup
  %16 = extractvalue { ptr, i32 } %15, 0
  store ptr %16, ptr %6, align 8
  %17 = extractvalue { ptr, i32 } %15, 1
  store i32 %17, ptr %7, align 4
  br label %22

18:                                               ; preds = %12, %11
  %19 = landingpad { ptr, i32 }
          cleanup
  %20 = extractvalue { ptr, i32 } %19, 0
  store ptr %20, ptr %6, align 8
  %21 = extractvalue { ptr, i32 } %19, 1
  store i32 %21, ptr %7, align 4
  call void @_ZN6casadi2MXD1Ev(ptr noundef nonnull align 8 dereferenceable(8) %5) #3
  br label %22

22:                                               ; preds = %18, %14
  %23 = load i1, ptr %8, align 1
  br i1 %23, label %24, label %25

24:                                               ; preds = %22
  call void @_ZdlPv(ptr noundef %10) #20
  br label %25

25:                                               ; preds = %24, %22
  br label %26

26:                                               ; preds = %25
  %27 = load ptr, ptr %6, align 8
  %28 = load i32, ptr %7, align 4
  %29 = insertvalue { ptr, i32 } poison, ptr %27, 0
  %30 = insertvalue { ptr, i32 } %29, i32 %28, 1
  resume { ptr, i32 } %30
}