; Function Attrs: mustprogress uwtable
define void @_ZNK6casadi6MXNode12get_norm_infEv(ptr dead_on_unwind noalias writable sret(%"class.casadi::MX") align 8 %0, ptr noundef nonnull align 8 dereferenceable(64) %1) unnamed_addr #3 align 2 personality ptr @__gxx_personality_v0 {
  %3 = alloca %"class.casadi::MX", align 8
  %4 = tail call noalias noundef nonnull dereferenceable(64) ptr @_Znwm(i64 noundef 64) #35
  invoke void @_ZNK6casadi20SharedObjectInternal16shared_from_thisINS_2MXEEEKT_v(ptr dead_on_unwind nonnull writable sret(%"class.casadi::MX") align 8 %3, ptr noundef nonnull align 8 dereferenceable(24) %1)
          to label %5 unwind label %.thread

5:                                                ; preds = %2
  invoke void @_ZN6casadi4NormC2ERKNS_2MXE(ptr noundef nonnull align 8 dereferenceable(64) %4, ptr noundef nonnull align 8 dereferenceable(8) %3)
          to label %7 unwind label %.thread10

.thread10:                                        ; preds = %5
  %6 = landingpad { ptr, i32 }
          cleanup
  call void @_ZN6casadi2MXD1Ev(ptr noundef nonnull align 8 dereferenceable(8) %3) #31
  br label %12

7:                                                ; preds = %5
  store ptr getelementptr inbounds ({ [108 x ptr] }, ptr @_ZTVN6casadi7NormInfE, i64 0, i32 0, i64 2), ptr %4, align 8
  invoke void @_ZN6casadi2MX6createEPNS_6MXNodeE(ptr dead_on_unwind writable sret(%"class.casadi::MX") align 8 %0, ptr noundef nonnull %4)
          to label %8 unwind label %10

8:                                                ; preds = %7
  call void @_ZN6casadi2MXD1Ev(ptr noundef nonnull align 8 dereferenceable(8) %3) #31
  ret void

.thread:                                          ; preds = %2
  %9 = landingpad { ptr, i32 }
          cleanup
  br label %12

10:                                               ; preds = %7
  %11 = landingpad { ptr, i32 }
          cleanup
  call void @_ZN6casadi2MXD1Ev(ptr noundef nonnull align 8 dereferenceable(8) %3) #31
  br label %13

12:                                               ; preds = %.thread10, %.thread
  %.pn9 = phi { ptr, i32 } [ %9, %.thread ], [ %6, %.thread10 ]
  call void @_ZdlPv(ptr noundef nonnull %4) #32
  br label %13

13:                                               ; preds = %10, %12
  %.pn8 = phi { ptr, i32 } [ %11, %10 ], [ %.pn9, %12 ]
  resume { ptr, i32 } %.pn8
}